target datalayout = "e-m:e-p270:32:32-p271:32:32-p272:64:64-i64:64-i128:128-f80:128-n8:16:32:64-S128"
target triple = "x86_64-pc-linux-gnu"

%struct._zend_array = type { %struct._zend_refcounted_h, %union.anon.17, i32, %union.anon.19, i32, i32, i32, i32, i64, ptr }
%struct._zend_refcounted_h = type { i32, %union.anon.16 }
%union.anon.16 = type { i32 }
%union.anon.17 = type { i32 }
%union.anon.19 = type { ptr }
%struct._zval_struct = type { %union._zend_value, %union.anon.21, %union.anon.24 }
%union._zend_value = type { i64 }
%union.anon.21 = type { i32 }
%union.anon.24 = type { i32 }
%struct._zend_jit_trace_info = type { i32, i32, i32, i32, i32, i32, i32, i32, i32, i32, i32, i32, ptr, ptr, ptr, ptr, ptr, i32, ptr }
%struct._ir_ctx = type { ptr, i32, i32, i32, i32, i32, i32, i32, i32, i32, i32, %struct._ir_insn, ptr, ptr, ptr, i32, i32, i32, ptr, ptr, ptr, ptr, ptr, i32, i32, i64, i32, i32, i32, i64, i32, i32, i32, i32, ptr, ptr, ptr, ptr, ptr, ptr, %union.anon.13, ptr, i32, i32, i32, i64, i32, i32, i32, ptr, ptr, ptr, ptr, %struct._ir_strtab, [61 x i32], [14 x i32] }
%struct._ir_insn = type { %struct.anon, %union.anon.5 }
%struct.anon = type { %union.anon, %union.anon.4 }
%union.anon = type { i32 }
%union.anon.4 = type { i32 }
%union.anon.5 = type { %union._ir_val }
%union._ir_val = type { double }
%union.anon.13 = type { ptr }
%struct._ir_strtab = type { ptr, i32, i32, i32, i32, ptr, i32, i32 }
%struct._zend_jit_ctx = type { %struct._ir_ctx, ptr, i8, i8, i8, i32, i32, i32, i32, i32, ptr, ptr, ptr, ptr, ptr, ptr, ptr, ptr, ptr, i32, ptr, i32, %struct._zend_array, [32 x i32] }
%struct.anon.0 = type { %union.anon.1, %union.anon.3 }
%union.anon.1 = type { i16 }
%union.anon.3 = type { i16 }
%struct._ir_code_buffer = type { ptr, ptr, ptr }

@dasm_buf = internal global ptr null, align 8
@dasm_end = internal global ptr null, align 8
@dasm_ptr = internal global ptr null, align 8
@zend_jit_traces = internal global ptr null, align 8
@zend_jit_exit_groups = internal global ptr null, align 8
@zend_jit_stub_handlers = internal global [32 x ptr] zeroinitializer, align 16

; Function Attrs: nounwind uwtable
define internal ptr @zend_jit_trace_allocate_exit_group(i32 noundef %0) #0 {
  %2 = alloca i32, align 4
  %3 = alloca ptr, align 8
  %4 = alloca i64, align 8
  %5 = alloca %struct._ir_code_buffer, align 8
  store i32 %0, ptr %2, align 4
  %6 = load ptr, ptr @dasm_buf, align 8
  %7 = getelementptr inbounds %struct._ir_code_buffer, ptr %5, i32 0, i32 0
  store ptr %6, ptr %7, align 8
  %8 = load ptr, ptr @dasm_end, align 8
  %9 = getelementptr inbounds %struct._ir_code_buffer, ptr %5, i32 0, i32 1
  store ptr %8, ptr %9, align 8
  %10 = load ptr, ptr @dasm_ptr, align 8
  %11 = load ptr, ptr %10, align 8
  %12 = getelementptr inbounds %struct._ir_code_buffer, ptr %5, i32 0, i32 2
  store ptr %11, ptr %12, align 8
  %13 = load i32, ptr %2, align 4
  %14 = load ptr, ptr getelementptr inbounds ([32 x ptr], ptr @zend_jit_stub_handlers, i64 0, i64 22), align 16
  %15 = call ptr @ir_emit_exitgroup(i32 noundef %13, i32 noundef 32, ptr noundef %14, ptr noundef %5, ptr noundef %4)
  store ptr %15, ptr %3, align 8
  %16 = getelementptr inbounds %struct._ir_code_buffer, ptr %5, i32 0, i32 2
  %17 = load ptr, ptr %16, align 8
  %18 = load ptr, ptr @dasm_ptr, align 8
  store ptr %17, ptr %18, align 8
  %19 = load ptr, ptr %3, align 8
  %20 = icmp ne ptr %19, null
  br i1 %20, label %21, label %22

21:                                               ; preds = %1
  br label %22

22:                                               ; preds = %21, %1
  %23 = load ptr, ptr %3, align 8
  ret ptr %23
}

; Function Attrs: nounwind uwtable
define internal i32 @jit_Z_PTR_ref(ptr noundef %0, i32 noundef %1) #0 {
  %3 = alloca ptr, align 8
  %4 = alloca i32, align 4
  store ptr %0, ptr %3, align 8
  store i32 %1, ptr %4, align 4
  %5 = load ptr, ptr %3, align 8
  %6 = getelementptr inbounds %struct._zend_jit_ctx, ptr %5, i32 0, i32 0
  %7 = load i32, ptr %4, align 4
  %8 = call i32 @_ir_LOAD(ptr noundef %6, i32 noundef 6, i32 noundef %7)
  ret i32 %8
}

; Function Attrs: nounwind uwtable
define internal ptr @zend_jit_trace_allocate_exit_point(i32 noundef %0) #0 {
  %2 = alloca ptr, align 8
  %3 = alloca i32, align 4
  %4 = alloca ptr, align 8
  store i32 %0, ptr %3, align 4
  store ptr null, ptr %4, align 8
  %5 = load i32, ptr %3, align 4
  %6 = icmp uge i32 %5, 512
  %7 = xor i1 %6, true
  %8 = xor i1 %7, true
  %9 = zext i1 %8 to i32
  %10 = sext i32 %9 to i64
  %11 = icmp ne i64 %10, 0
  br i1 %11, label %12, label %13

12:                                               ; preds = %1
  store ptr null, ptr %2, align 8
  br label %52

13:                                               ; preds = %1
  br label %14

14:                                               ; preds = %38, %13
  %15 = load ptr, ptr @zend_jit_traces, align 8
  %16 = getelementptr inbounds %struct._zend_jit_trace_info, ptr %15, i64 0
  %17 = getelementptr inbounds %struct._zend_jit_trace_info, ptr %16, i32 0, i32 4
  %18 = load i32, ptr %17, align 8
  %19 = call ptr @zend_jit_trace_allocate_exit_group(i32 noundef %18)
  store ptr %19, ptr %4, align 8
  %20 = load ptr, ptr %4, align 8
  %21 = icmp ne ptr %20, null
  br i1 %21, label %23, label %22

22:                                               ; preds = %14
  store ptr null, ptr %2, align 8
  br label %52

23:                                               ; preds = %14
  %24 = load ptr, ptr %4, align 8
  %25 = load ptr, ptr @zend_jit_exit_groups, align 8
  %26 = load ptr, ptr @zend_jit_traces, align 8
  %27 = getelementptr inbounds %struct._zend_jit_trace_info, ptr %26, i64 0
  %28 = getelementptr inbounds %struct._zend_jit_trace_info, ptr %27, i32 0, i32 4
  %29 = load i32, ptr %28, align 8
  %30 = udiv i32 %29, 32
  %31 = zext i32 %30 to i64
  %32 = getelementptr inbounds ptr, ptr %25, i64 %31
  store ptr %24, ptr %32, align 8
  %33 = load ptr, ptr @zend_jit_traces, align 8
  %34 = getelementptr inbounds %struct._zend_jit_trace_info, ptr %33, i64 0
  %35 = getelementptr inbounds %struct._zend_jit_trace_info, ptr %34, i32 0, i32 4
  %36 = load i32, ptr %35, align 8
  %37 = add i32 %36, 32
  store i32 %37, ptr %35, align 8
  br label %38

38:                                               ; preds = %23
  %39 = load i32, ptr %3, align 4
  %40 = load ptr, ptr @zend_jit_traces, align 8
  %41 = getelementptr inbounds %struct._zend_jit_trace_info, ptr %40, i64 0
  %42 = getelementptr inbounds %struct._zend_jit_trace_info, ptr %41, i32 0, i32 4
  %43 = load i32, ptr %42, align 8
  %44 = icmp uge i32 %39, %43
  br i1 %44, label %14, label %45

45:                                               ; preds = %38
  %46 = load ptr, ptr %4, align 8
  %47 = load i32, ptr %3, align 4
  %48 = urem i32 %47, 32
  %49 = mul i32 %48, 4
  %50 = zext i32 %49 to i64
  %51 = getelementptr inbounds i8, ptr %46, i64 %50
  store ptr %51, ptr %2, align 8
  br label %52

52:                                               ; preds = %45, %22, %12
  %53 = load ptr, ptr %2, align 8
  ret ptr %53
}

; Function Attrs: nounwind uwtable
define internal i32 @jit_ADD_OFFSET(ptr noundef %0, i32 noundef %1, i64 noundef %2) #0 {
  %4 = alloca ptr, align 8
  %5 = alloca i32, align 4
  %6 = alloca i64, align 8
  store ptr %0, ptr %4, align 8
  store i32 %1, ptr %5, align 4
  store i64 %2, ptr %6, align 8
  %7 = load i64, ptr %6, align 8
  %8 = icmp ne i64 %7, 0
  br i1 %8, label %9, label %17

9:                                                ; preds = %3
  %10 = load ptr, ptr %4, align 8
  %11 = getelementptr inbounds %struct._zend_jit_ctx, ptr %10, i32 0, i32 0
  %12 = load i32, ptr %5, align 4
  %13 = load ptr, ptr %4, align 8
  %14 = load i64, ptr %6, align 8
  %15 = call i32 @jit_CONST_ADDR(ptr noundef %13, i64 noundef %14)
  %16 = call i32 @ir_fold2(ptr noundef %11, i32 noundef 1560, i32 noundef %12, i32 noundef %15)
  store i32 %16, ptr %5, align 4
  br label %17

17:                                               ; preds = %9, %3
  %18 = load i32, ptr %5, align 4
  ret i32 %18
}

; Function Attrs: nounwind uwtable
define internal i32 @jit_Z_PTR(ptr noundef %0, i64 noundef %1) #0 {
  %3 = alloca i32, align 4
  %4 = alloca ptr, align 8
  %5 = alloca i64, align 8
  store ptr %0, ptr %4, align 8
  store i64 %1, ptr %5, align 8
  %6 = load i64, ptr %5, align 8
  %7 = and i64 %6, 3
  %8 = icmp eq i64 %7, 0
  br i1 %8, label %9, label %17

9:                                                ; preds = %2
  %10 = load ptr, ptr %4, align 8
  %11 = load i64, ptr %5, align 8
  %12 = inttoptr i64 %11 to ptr
  %13 = getelementptr inbounds %struct._zval_struct, ptr %12, i32 0, i32 0
  %14 = load ptr, ptr %13, align 8
  %15 = ptrtoint ptr %14 to i64
  %16 = call i32 @jit_CONST_ADDR(ptr noundef %10, i64 noundef %15)
  store i32 %16, ptr %3, align 4
  br label %23

17:                                               ; preds = %2
  %18 = load ptr, ptr %4, align 8
  %19 = load ptr, ptr %4, align 8
  %20 = load i64, ptr %5, align 8
  %21 = call i32 @jit_ZVAL_ADDR(ptr noundef %19, i64 noundef %20)
  %22 = call i32 @jit_Z_PTR_ref(ptr noundef %18, i32 noundef %21)
  store i32 %22, ptr %3, align 4
  br label %23

23:                                               ; preds = %17, %9
  %24 = load i32, ptr %3, align 4
  ret i32 %24
}

; Function Attrs: nounwind uwtable
define internal i32 @jit_CONST_ADDR(ptr noundef %0, i64 noundef %1) #0 {
  %3 = alloca ptr, align 8
  %4 = alloca i32, align 4
  %5 = alloca ptr, align 8
  %6 = alloca i64, align 8
  %7 = alloca i32, align 4
  %8 = alloca ptr, align 8
  %9 = alloca ptr, align 8
  store ptr %0, ptr %5, align 8
  store i64 %1, ptr %6, align 8
  %10 = load i64, ptr %6, align 8
  %11 = icmp eq i64 %10, 0
  br i1 %11, label %12, label %13

12:                                               ; preds = %2
  store i32 -1, ptr %4, align 4
  br label %58

13:                                               ; preds = %2
  %14 = load ptr, ptr %5, align 8
  %15 = getelementptr inbounds %struct._zend_jit_ctx, ptr %14, i32 0, i32 22
  %16 = load i64, ptr %6, align 8
  %17 = call ptr @zend_hash_index_lookup(ptr noundef %15, i64 noundef %16)
  store ptr %17, ptr %8, align 8
  %18 = load ptr, ptr %8, align 8
  store ptr %18, ptr %3, align 8
  %19 = load ptr, ptr %3, align 8
  %20 = getelementptr inbounds %struct._zval_struct, ptr %19, i32 0, i32 1
  %21 = load i8, ptr %20, align 8
  %22 = zext i8 %21 to i32
  %23 = icmp eq i32 %22, 4
  br i1 %23, label %24, label %42

24:                                               ; preds = %13
  %25 = load ptr, ptr %8, align 8
  %26 = getelementptr inbounds %struct._zval_struct, ptr %25, i32 0, i32 0
  %27 = load i64, ptr %26, align 8
  %28 = trunc i64 %27 to i32
  store i32 %28, ptr %7, align 4
  %29 = load ptr, ptr %5, align 8
  %30 = getelementptr inbounds %struct._zend_jit_ctx, ptr %29, i32 0, i32 0
  %31 = getelementptr inbounds %struct._ir_ctx, ptr %30, i32 0, i32 0
  %32 = load ptr, ptr %31, align 8
  %33 = load i32, ptr %7, align 4
  %34 = sext i32 %33 to i64
  %35 = getelementptr inbounds %struct._ir_insn, ptr %32, i64 %34
  %36 = getelementptr inbounds %struct._ir_insn, ptr %35, i32 0, i32 0
  %37 = getelementptr inbounds %struct.anon, ptr %36, i32 0, i32 0
  %38 = getelementptr inbounds %struct.anon.0, ptr %37, i32 0, i32 0
  %39 = load i16, ptr %38, align 8
  %40 = zext i16 %39 to i32
  %41 = icmp eq i32 %40, 1542
  call void @llvm.assume(i1 %41)
  br label %56

42:                                               ; preds = %13
  %43 = load ptr, ptr %5, align 8
  %44 = getelementptr inbounds %struct._zend_jit_ctx, ptr %43, i32 0, i32 0
  %45 = load i64, ptr %6, align 8
  %46 = call i32 @ir_unique_const_addr(ptr noundef %44, i64 noundef %45)
  store i32 %46, ptr %7, align 4
  br label %47

47:                                               ; preds = %42
  %48 = load ptr, ptr %8, align 8
  store ptr %48, ptr %9, align 8
  %49 = load i32, ptr %7, align 4
  %50 = sext i32 %49 to i64
  %51 = load ptr, ptr %9, align 8
  %52 = getelementptr inbounds %struct._zval_struct, ptr %51, i32 0, i32 0
  store i64 %50, ptr %52, align 8
  %53 = load ptr, ptr %9, align 8
  %54 = getelementptr inbounds %struct._zval_struct, ptr %53, i32 0, i32 1
  store i32 4, ptr %54, align 8
  br label %55

55:                                               ; preds = %47
  br label %56

56:                                               ; preds = %55, %24
  %57 = load i32, ptr %7, align 4
  store i32 %57, ptr %4, align 4
  br label %58

58:                                               ; preds = %56, %12
  %59 = load i32, ptr %4, align 4
  ret i32 %59
}

; Function Attrs: nounwind uwtable
define internal ptr @zend_jit_trace_get_exit_addr(i32 noundef %0) #0 {
  %2 = alloca ptr, align 8
  %3 = alloca i32, align 4
  store i32 %0, ptr %3, align 4
  %4 = load i32, ptr %3, align 4
  %5 = load ptr, ptr @zend_jit_traces, align 8
  %6 = getelementptr inbounds %struct._zend_jit_trace_info, ptr %5, i64 0
  %7 = getelementptr inbounds %struct._zend_jit_trace_info, ptr %6, i32 0, i32 4
  %8 = load i32, ptr %7, align 8
  %9 = icmp uge i32 %4, %8
  %10 = xor i1 %9, true
  %11 = xor i1 %10, true
  %12 = zext i1 %11 to i32
  %13 = sext i32 %12 to i64
  %14 = icmp ne i64 %13, 0
  br i1 %14, label %15, label %18

15:                                               ; preds = %1
  %16 = load i32, ptr %3, align 4
  %17 = call ptr @zend_jit_trace_allocate_exit_point(i32 noundef %16)
  store ptr %17, ptr %2, align 8
  br label %30

18:                                               ; preds = %1
  %19 = load ptr, ptr @zend_jit_exit_groups, align 8
  %20 = load i32, ptr %3, align 4
  %21 = udiv i32 %20, 32
  %22 = zext i32 %21 to i64
  %23 = getelementptr inbounds ptr, ptr %19, i64 %22
  %24 = load ptr, ptr %23, align 8
  %25 = load i32, ptr %3, align 4
  %26 = urem i32 %25, 32
  %27 = mul i32 %26, 4
  %28 = zext i32 %27 to i64
  %29 = getelementptr inbounds i8, ptr %24, i64 %28
  store ptr %29, ptr %2, align 8
  br label %30

30:                                               ; preds = %18, %15
  %31 = load ptr, ptr %2, align 8
  ret ptr %31
}

; Function Attrs: nounwind uwtable
define internal zeroext i1 @zend_jit_guard_reference(ptr noundef %0, ptr noundef %1, ptr noundef %2, ptr noundef %3, i1 noundef zeroext %4) #0 {
  %6 = alloca i1, align 1
  %7 = alloca ptr, align 8
  %8 = alloca ptr, align 8
  %9 = alloca ptr, align 8
  %10 = alloca ptr, align 8
  %11 = alloca i8, align 1
  %12 = alloca i64, align 8
  %13 = alloca ptr, align 8
  %14 = alloca i32, align 4
  %15 = alloca i32, align 4
  store ptr %0, ptr %7, align 8
  store ptr %1, ptr %8, align 8
  store ptr %2, ptr %9, align 8
  store ptr %3, ptr %10, align 8
  %16 = zext i1 %4 to i8
  store i8 %16, ptr %11, align 1
  %17 = load ptr, ptr %9, align 8
  %18 = load i64, ptr %17, align 8
  store i64 %18, ptr %12, align 8
  store ptr null, ptr %13, align 8
  %19 = load i8, ptr %11, align 1
  %20 = trunc i8 %19 to i1
  br i1 %20, label %21, label %46

21:                                               ; preds = %5
  %22 = load ptr, ptr %8, align 8
  %23 = call i32 @zend_jit_trace_get_exit_point(ptr noundef %22, i32 noundef 0)
  store i32 %23, ptr %15, align 4
  %24 = load i32, ptr %15, align 4
  %25 = call ptr @zend_jit_trace_get_exit_addr(i32 noundef %24)
  store ptr %25, ptr %13, align 8
  %26 = load ptr, ptr %13, align 8
  %27 = icmp ne ptr %26, null
  br i1 %27, label %29, label %28

28:                                               ; preds = %21
  store i1 false, ptr %6, align 1
  br label %64

29:                                               ; preds = %21
  %30 = load ptr, ptr %7, align 8
  %31 = load i64, ptr %12, align 8
  %32 = call i32 @jit_Z_TYPE(ptr noundef %30, i64 noundef %31)
  store i32 %32, ptr %14, align 4
  %33 = load ptr, ptr %7, align 8
  %34 = getelementptr inbounds %struct._zend_jit_ctx, ptr %33, i32 0, i32 0
  %35 = load ptr, ptr %7, align 8
  %36 = getelementptr inbounds %struct._zend_jit_ctx, ptr %35, i32 0, i32 0
  %37 = load i32, ptr %14, align 4
  %38 = load ptr, ptr %7, align 8
  %39 = getelementptr inbounds %struct._zend_jit_ctx, ptr %38, i32 0, i32 0
  %40 = call i32 @ir_const_u8(ptr noundef %39, i8 noundef zeroext 10)
  %41 = call i32 @ir_fold2(ptr noundef %36, i32 noundef 270, i32 noundef %37, i32 noundef %40)
  %42 = load ptr, ptr %7, align 8
  %43 = load ptr, ptr %13, align 8
  %44 = ptrtoint ptr %43 to i64
  %45 = call i32 @jit_CONST_ADDR(ptr noundef %42, i64 noundef %44)
  call void @_ir_GUARD(ptr noundef %34, i32 noundef %41, i32 noundef %45)
  br label %46

46:                                               ; preds = %29, %5
  %47 = load ptr, ptr %7, align 8
  %48 = load i64, ptr %12, align 8
  %49 = call i32 @jit_Z_PTR(ptr noundef %47, i64 noundef %48)
  store i32 %49, ptr %14, align 4
  %50 = load i32, ptr %14, align 4
  %51 = sext i32 %50 to i64
  %52 = shl i64 %51, 2
  %53 = or i64 %52, 3
  %54 = load ptr, ptr %10, align 8
  store i64 %53, ptr %54, align 8
  %55 = load ptr, ptr %7, align 8
  %56 = load i32, ptr %14, align 4
  %57 = call i32 @jit_ADD_OFFSET(ptr noundef %55, i32 noundef %56, i64 noundef 8)
  store i32 %57, ptr %14, align 4
  %58 = load i32, ptr %14, align 4
  %59 = sext i32 %58 to i64
  %60 = shl i64 %59, 2
  %61 = or i64 %60, 3
  store i64 %61, ptr %12, align 8
  %62 = load i64, ptr %12, align 8
  %63 = load ptr, ptr %9, align 8
  store i64 %62, ptr %63, align 8
  store i1 true, ptr %6, align 1
  br label %64

64:                                               ; preds = %46, %28
  %65 = load i1, ptr %6, align 1
  ret i1 %65
}