; Function Attrs: nounwind uwtable
define internal fastcc noundef zeroext i1 @zend_jit_guard_reference(ptr noundef %0, ptr noundef %1, ptr nocapture noundef %2, ptr nocapture noundef writeonly %3, i1 noundef zeroext %4) unnamed_addr #0 {
  %6 = alloca i64, align 8
  %7 = alloca %struct._ir_code_buffer, align 8
  %8 = load i64, ptr %2, align 8
  br i1 %4, label %9, label %69

9:                                                ; preds = %5
  %10 = tail call fastcc i32 @zend_jit_trace_get_exit_point(ptr noundef %1, i32 noundef 0)
  %11 = load ptr, ptr @zend_jit_traces, align 8
  %12 = getelementptr inbounds i8, ptr %11, i64 16
  %13 = load i32, ptr %12, align 8
  %.not.i = icmp ugt i32 %13, %10
  br i1 %.not.i, label %38, label %14

14:                                               ; preds = %9
  %15 = icmp ugt i32 %10, 511
  br i1 %15, label %zend_jit_trace_get_exit_addr.exit.thread, label %.preheader.i.i

.preheader.i.i:                                   ; preds = %14
  %16 = getelementptr inbounds i8, ptr %7, i64 8
  %17 = getelementptr inbounds i8, ptr %7, i64 16
  %.pre12.i.i = load ptr, ptr @dasm_ptr, align 8
  br label %18

18:                                               ; preds = %28, %.preheader.i.i
  %19 = phi ptr [ %.pre12.i.i, %.preheader.i.i ], [ %27, %28 ]
  %20 = phi i32 [ %13, %.preheader.i.i ], [ %37, %28 ]
  call void @llvm.lifetime.start.p0(i64 8, ptr nonnull %6)
  call void @llvm.lifetime.start.p0(i64 24, ptr nonnull %7)
  %21 = load ptr, ptr @dasm_buf, align 8
  store ptr %21, ptr %7, align 8
  %22 = load ptr, ptr @dasm_end, align 8
  store ptr %22, ptr %16, align 8
  %23 = load ptr, ptr %19, align 8
  store ptr %23, ptr %17, align 8
  %24 = load ptr, ptr getelementptr inbounds ([32 x ptr], ptr @zend_jit_stub_handlers, i64 0, i64 22), align 16
  %25 = call ptr @ir_emit_exitgroup(i32 noundef %20, i32 noundef 32, ptr noundef %24, ptr noundef nonnull %7, ptr noundef nonnull %6) #32
  %26 = load ptr, ptr %17, align 8
  %27 = load ptr, ptr @dasm_ptr, align 8
  store ptr %26, ptr %27, align 8
  call void @llvm.lifetime.end.p0(i64 8, ptr nonnull %6)
  call void @llvm.lifetime.end.p0(i64 24, ptr nonnull %7)
  %.not.i.i = icmp eq ptr %25, null
  br i1 %.not.i.i, label %zend_jit_trace_get_exit_addr.exit.thread, label %28

28:                                               ; preds = %18
  %29 = load ptr, ptr @zend_jit_exit_groups, align 8
  %30 = load ptr, ptr @zend_jit_traces, align 8
  %31 = getelementptr inbounds i8, ptr %30, i64 16
  %32 = load i32, ptr %31, align 8
  %33 = lshr i32 %32, 5
  %34 = zext nneg i32 %33 to i64
  %35 = getelementptr inbounds ptr, ptr %29, i64 %34
  store ptr %25, ptr %35, align 8
  %36 = load i32, ptr %31, align 8
  %37 = add i32 %36, 32
  store i32 %37, ptr %31, align 8
  %.not8.i.i = icmp ugt i32 %37, %10
  br i1 %.not8.i.i, label %zend_jit_trace_get_exit_addr.exit, label %18

38:                                               ; preds = %9
  %39 = load ptr, ptr @zend_jit_exit_groups, align 8
  %40 = lshr i32 %10, 5
  %41 = zext nneg i32 %40 to i64
  %42 = getelementptr inbounds ptr, ptr %39, i64 %41
  %43 = load ptr, ptr %42, align 8
  br label %zend_jit_trace_get_exit_addr.exit

zend_jit_trace_get_exit_addr.exit:                ; preds = %28, %38
  %.lcssa31.sink = phi ptr [ %43, %38 ], [ %25, %28 ]
  %.not = icmp eq ptr %.lcssa31.sink, null
  br i1 %.not, label %zend_jit_trace_get_exit_addr.exit.thread, label %44

44:                                               ; preds = %zend_jit_trace_get_exit_addr.exit
  %45 = shl i32 %10, 2
  %46 = and i32 %45, 124
  %47 = zext nneg i32 %46 to i64
  %48 = getelementptr inbounds i8, ptr %.lcssa31.sink, i64 %47
  %49 = call fastcc i32 @jit_Z_TYPE(ptr noundef %0, i64 noundef %8)
  %50 = call i32 @ir_const_u8(ptr noundef %0, i8 noundef zeroext 10) #32
  %51 = call i32 @ir_fold2(ptr noundef %0, i32 noundef 270, i32 noundef %49, i32 noundef %50) #32
  %52 = ptrtoint ptr %48 to i64
  %53 = getelementptr inbounds i8, ptr %0, i64 808
  %54 = call ptr @zend_hash_index_lookup(ptr noundef nonnull %53, i64 noundef %52) #32
  %55 = getelementptr inbounds i8, ptr %54, i64 8
  %56 = load i8, ptr %55, align 8
  %57 = icmp eq i8 %56, 4
  br i1 %57, label %58, label %66

58:                                               ; preds = %44
  %59 = load i64, ptr %54, align 8
  %60 = trunc i64 %59 to i32
  %61 = load ptr, ptr %0, align 8
  %sext.i = shl i64 %59, 32
  %62 = ashr exact i64 %sext.i, 32
  %63 = getelementptr inbounds %struct._ir_insn, ptr %61, i64 %62
  %64 = load i16, ptr %63, align 8
  %65 = icmp eq i16 %64, 1542
  call void @llvm.assume(i1 %65)
  br label %jit_CONST_ADDR.exit

66:                                               ; preds = %44
  %67 = call i32 @ir_unique_const_addr(ptr noundef %0, i64 noundef %52) #32
  %68 = sext i32 %67 to i64
  store i64 %68, ptr %54, align 8
  store i32 4, ptr %55, align 8
  br label %jit_CONST_ADDR.exit

jit_CONST_ADDR.exit:                              ; preds = %58, %66
  %.0.i23 = phi i32 [ %60, %58 ], [ %67, %66 ]
  call void @_ir_GUARD(ptr noundef %0, i32 noundef %51, i32 noundef %.0.i23) #32
  br label %69

69:                                               ; preds = %jit_CONST_ADDR.exit, %5
  %70 = and i64 %8, 3
  %71 = icmp eq i64 %70, 0
  br i1 %71, label %72, label %94

72:                                               ; preds = %69
  %73 = inttoptr i64 %8 to ptr
  %74 = load ptr, ptr %73, align 8
  %75 = ptrtoint ptr %74 to i64
  %76 = icmp eq ptr %74, null
  br i1 %76, label %jit_Z_PTR.exit, label %77

77:                                               ; preds = %72
  %78 = getelementptr inbounds i8, ptr %0, i64 808
  %79 = call ptr @zend_hash_index_lookup(ptr noundef nonnull %78, i64 noundef %75) #32
  %80 = getelementptr inbounds i8, ptr %79, i64 8
  %81 = load i8, ptr %80, align 8
  %82 = icmp eq i8 %81, 4
  br i1 %82, label %83, label %91

83:                                               ; preds = %77
  %84 = load i64, ptr %79, align 8
  %85 = trunc i64 %84 to i32
  %86 = load ptr, ptr %0, align 8
  %sext.i.i = shl i64 %84, 32
  %87 = ashr exact i64 %sext.i.i, 32
  %88 = getelementptr inbounds %struct._ir_insn, ptr %86, i64 %87
  %89 = load i16, ptr %88, align 8
  %90 = icmp eq i16 %89, 1542
  call void @llvm.assume(i1 %90)
  br label %jit_Z_PTR.exit

91:                                               ; preds = %77
  %92 = call i32 @ir_unique_const_addr(ptr noundef %0, i64 noundef %75) #32
  %93 = sext i32 %92 to i64
  store i64 %93, ptr %79, align 8
  store i32 4, ptr %80, align 8
  br label %jit_Z_PTR.exit

94:                                               ; preds = %69
  %95 = call fastcc i32 @jit_ZVAL_ADDR(ptr noundef %0, i64 noundef %8)
  %96 = call i32 @_ir_LOAD(ptr noundef %0, i32 noundef 6, i32 noundef %95) #32
  br label %jit_Z_PTR.exit

jit_Z_PTR.exit:                                   ; preds = %72, %83, %91, %94
  %.0.i24 = phi i32 [ %96, %94 ], [ -1, %72 ], [ %85, %83 ], [ %92, %91 ]
  %97 = sext i32 %.0.i24 to i64
  %98 = shl nsw i64 %97, 2
  %99 = or disjoint i64 %98, 3
  store i64 %99, ptr %3, align 8
  %100 = getelementptr inbounds i8, ptr %0, i64 808
  %101 = call ptr @zend_hash_index_lookup(ptr noundef nonnull %100, i64 noundef 8) #32
  %102 = getelementptr inbounds i8, ptr %101, i64 8
  %103 = load i8, ptr %102, align 8
  %104 = icmp eq i8 %103, 4
  br i1 %104, label %105, label %113

105:                                              ; preds = %jit_Z_PTR.exit
  %106 = load i64, ptr %101, align 8
  %107 = trunc i64 %106 to i32
  %108 = load ptr, ptr %0, align 8
  %sext.i.i26 = shl i64 %106, 32
  %109 = ashr exact i64 %sext.i.i26, 32
  %110 = getelementptr inbounds %struct._ir_insn, ptr %108, i64 %109
  %111 = load i16, ptr %110, align 8
  %112 = icmp eq i16 %111, 1542
  call void @llvm.assume(i1 %112)
  br label %jit_ADD_OFFSET.exit

113:                                              ; preds = %jit_Z_PTR.exit
  %114 = call i32 @ir_unique_const_addr(ptr noundef %0, i64 noundef 8) #32
  %115 = sext i32 %114 to i64
  store i64 %115, ptr %101, align 8
  store i32 4, ptr %102, align 8
  br label %jit_ADD_OFFSET.exit

jit_ADD_OFFSET.exit:                              ; preds = %105, %113
  %.0.i.i = phi i32 [ %107, %105 ], [ %114, %113 ]
  %116 = call i32 @ir_fold2(ptr noundef %0, i32 noundef 1560, i32 noundef %.0.i24, i32 noundef %.0.i.i) #32
  %117 = sext i32 %116 to i64
  %118 = shl nsw i64 %117, 2
  %119 = or disjoint i64 %118, 3
  store i64 %119, ptr %2, align 8
  br label %zend_jit_trace_get_exit_addr.exit.thread

zend_jit_trace_get_exit_addr.exit.thread:         ; preds = %18, %14, %zend_jit_trace_get_exit_addr.exit, %jit_ADD_OFFSET.exit
  %.0 = phi i1 [ true, %jit_ADD_OFFSET.exit ], [ false, %zend_jit_trace_get_exit_addr.exit ], [ false, %14 ], [ false, %18 ]
  ret i1 %.0
}